; ModuleID = '25/1189.cpp'
source_filename = "25/1189.cpp"
target datalayout = "e-m:e-p270:32:32-p271:32:32-p272:64:64-i64:64-f80:128-n8:16:32:64-S128"
target triple = "x86_64-pc-linux-gnu"

%"class.std::ios_base::Init" = type { i8 }
%"class.std::basic_istream" = type { i32 (...)**, i64, %"class.std::basic_ios" }
%"class.std::basic_ios" = type { %"class.std::ios_base", %"class.std::basic_ostream"*, i8, i8, %"class.std::basic_streambuf"*, %"class.std::ctype"*, %"class.std::num_put"*, %"class.std::num_get"* }
%"class.std::ios_base" = type { i32 (...)**, i64, i64, i32, i32, i32, %"struct.std::ios_base::_Callback_list"*, %"struct.std::ios_base::_Words", [8 x %"struct.std::ios_base::_Words"], i32, %"struct.std::ios_base::_Words"*, %"class.std::locale" }
%"struct.std::ios_base::_Callback_list" = type { %"struct.std::ios_base::_Callback_list"*, void (i32, %"class.std::ios_base"*, i32)*, i32, i32 }
%"struct.std::ios_base::_Words" = type { i8*, i64 }
%"class.std::locale" = type { %"class.std::locale::_Impl"* }
%"class.std::locale::_Impl" = type { i32, %"class.std::locale::facet"**, i64, %"class.std::locale::facet"**, i8** }
%"class.std::locale::facet" = type <{ i32 (...)**, i32, [4 x i8] }>
%"class.std::basic_ostream" = type { i32 (...)**, %"class.std::basic_ios" }
%"class.std::basic_streambuf" = type { i32 (...)**, i8*, i8*, i8*, i8*, i8*, i8*, %"class.std::locale" }
%"class.std::ctype" = type <{ %"class.std::locale::facet.base", [4 x i8], %struct.__locale_struct*, i8, [7 x i8], i32*, i32*, i16*, i8, [256 x i8], [256 x i8], i8, [6 x i8] }>
%"class.std::locale::facet.base" = type <{ i32 (...)**, i32 }>
%struct.__locale_struct = type { [13 x %struct.__locale_data*], i16*, i32*, i32*, [13 x i8*] }
%struct.__locale_data = type opaque
%"class.std::num_put" = type { %"class.std::locale::facet.base", [4 x i8] }
%"class.std::num_get" = type { %"class.std::locale::facet.base", [4 x i8] }

@_ZStL8__ioinit = internal global %"class.std::ios_base::Init" zeroinitializer, align 1
@__dso_handle = external hidden global i8
@_ZSt3cin = external dso_local global %"class.std::basic_istream", align 8
@_ZSt4cout = external dso_local global %"class.std::basic_ostream", align 8
@llvm.global_ctors = appending global [1 x { i32, void ()*, i8* }] [{ i32, void ()*, i8* } { i32 65535, void ()* @_GLOBAL__sub_I_1189.cpp, i8* null }]

; Function Attrs: noinline uwtable
define internal void @__cxx_global_var_init() #0 section ".text.startup" {
  call void @_ZNSt8ios_base4InitC1Ev(%"class.std::ios_base::Init"* @_ZStL8__ioinit)
  %1 = call i32 @__cxa_atexit(void (i8*)* bitcast (void (%"class.std::ios_base::Init"*)* @_ZNSt8ios_base4InitD1Ev to void (i8*)*), i8* getelementptr inbounds (%"class.std::ios_base::Init", %"class.std::ios_base::Init"* @_ZStL8__ioinit, i32 0, i32 0), i8* @__dso_handle) #3
  ret void
}

declare dso_local void @_ZNSt8ios_base4InitC1Ev(%"class.std::ios_base::Init"*) unnamed_addr #1

; Function Attrs: nounwind
declare dso_local void @_ZNSt8ios_base4InitD1Ev(%"class.std::ios_base::Init"*) unnamed_addr #2

; Function Attrs: nounwind
declare dso_local i32 @__cxa_atexit(void (i8*)*, i8*, i8*) #3

; Function Attrs: noinline norecurse uwtable
define dso_local i32 @main() #4 {
  %1 = alloca i32, align 4
  %2 = alloca [100 x i32], align 16
  %3 = alloca i32*, align 8
  %4 = alloca i32, align 4
  %5 = alloca i32, align 4
  %6 = alloca i32, align 4
  %7 = alloca i32*, align 8
  store i32 0, i32* %1, align 4
  %8 = bitcast [100 x i32]* %2 to i8*
  call void @llvm.memset.p0i8.i64(i8* align 16 %8, i8 0, i64 400, i1 false)
  %9 = bitcast i8* %8 to <{ i32, [99 x i32] }>*
  %10 = getelementptr inbounds <{ i32, [99 x i32] }>, <{ i32, [99 x i32] }>* %9, i32 0, i32 0
  store i32 1, i32* %10, align 16
  %11 = call dereferenceable(280) %"class.std::basic_istream"* @_ZNSirsERi(%"class.std::basic_istream"* @_ZSt3cin, i32* dereferenceable(4) %4)
  %12 = load i32, i32* %4, align 4
  %13 = icmp eq i32 %12, 0
  br i1 %13, label %14, label %16

14:                                               ; preds = %0
  %15 = call dereferenceable(272) %"class.std::basic_ostream"* @_ZNSolsEi(%"class.std::basic_ostream"* @_ZSt4cout, i32 1)
  store i32 0, i32* %1, align 4
  br label %112

16:                                               ; preds = %0
  store i32 0, i32* %5, align 4
  br label %17

17:                                               ; preds = %87, %16
  %18 = load i32, i32* %5, align 4
  %19 = load i32, i32* %4, align 4
  %20 = icmp slt i32 %18, %19
  br i1 %20, label %21, label %90

21:                                               ; preds = %17
  %22 = getelementptr inbounds [100 x i32], [100 x i32]* %2, i64 0, i64 0
  store i32* %22, i32** %3, align 8
  store i32 0, i32* %6, align 4
  br label %23

23:                                               ; preds = %46, %21
  %24 = load i32*, i32** %3, align 8
  %25 = load i32, i32* %24, align 4
  %26 = icmp ne i32 %25, 0
  br i1 %26, label %37, label %27

27:                                               ; preds = %23
  %28 = load i32*, i32** %3, align 8
  %29 = getelementptr inbounds i32, i32* %28, i64 1
  %30 = load i32, i32* %29, align 4
  %31 = icmp ne i32 %30, 0
  br i1 %31, label %37, label %32

32:                                               ; preds = %27
  %33 = load i32*, i32** %3, align 8
  %34 = getelementptr inbounds i32, i32* %33, i64 2
  %35 = load i32, i32* %34, align 4
  %36 = icmp ne i32 %35, 0
  br label %37

37:                                               ; preds = %32, %27, %23
  %38 = phi i1 [ true, %27 ], [ true, %23 ], [ %36, %32 ]
  br i1 %38, label %39, label %49

39:                                               ; preds = %37
  %40 = load i32*, i32** %3, align 8
  %41 = load i32, i32* %40, align 4
  %42 = mul nsw i32 %41, 2
  %43 = load i32*, i32** %3, align 8
  store i32 %42, i32* %43, align 4
  %44 = load i32*, i32** %3, align 8
  %45 = getelementptr inbounds i32, i32* %44, i32 1
  store i32* %45, i32** %3, align 8
  br label %46

46:                                               ; preds = %39
  %47 = load i32, i32* %6, align 4
  %48 = add nsw i32 %47, 1
  store i32 %48, i32* %6, align 4
  br label %23

49:                                               ; preds = %37
  %50 = getelementptr inbounds [100 x i32], [100 x i32]* %2, i64 0, i64 0
  store i32* %50, i32** %7, align 8
  br label %51

51:                                               ; preds = %83, %49
  %52 = load i32*, i32** %7, align 8
  %53 = load i32, i32* %52, align 4
  %54 = icmp ne i32 %53, 0
  br i1 %54, label %65, label %55

55:                                               ; preds = %51
  %56 = load i32*, i32** %7, align 8
  %57 = getelementptr inbounds i32, i32* %56, i64 1
  %58 = load i32, i32* %57, align 4
  %59 = icmp ne i32 %58, 0
  br i1 %59, label %65, label %60

60:                                               ; preds = %55
  %61 = load i32*, i32** %7, align 8
  %62 = getelementptr inbounds i32, i32* %61, i64 2
  %63 = load i32, i32* %62, align 4
  %64 = icmp ne i32 %63, 0
  br label %65

65:                                               ; preds = %60, %55, %51
  %66 = phi i1 [ true, %55 ], [ true, %51 ], [ %64, %60 ]
  br i1 %66, label %67, label %86

67:                                               ; preds = %65
  %68 = load i32*, i32** %7, align 8
  %69 = load i32, i32* %68, align 4
  %70 = icmp sge i32 %69, 10
  br i1 %70, label %71, label %82

71:                                               ; preds = %67
  %72 = load i32*, i32** %7, align 8
  %73 = load i32, i32* %72, align 4
  %74 = sub nsw i32 %73, 10
  %75 = load i32*, i32** %7, align 8
  store i32 %74, i32* %75, align 4
  %76 = load i32*, i32** %7, align 8
  %77 = getelementptr inbounds i32, i32* %76, i64 1
  %78 = load i32, i32* %77, align 4
  %79 = add nsw i32 %78, 1
  %80 = load i32*, i32** %7, align 8
  %81 = getelementptr inbounds i32, i32* %80, i64 1
  store i32 %79, i32* %81, align 4
  br label %82

82:                                               ; preds = %71, %67
  br label %83

83:                                               ; preds = %82
  %84 = load i32*, i32** %7, align 8
  %85 = getelementptr inbounds i32, i32* %84, i32 1
  store i32* %85, i32** %7, align 8
  br label %51

86:                                               ; preds = %65
  br label %87

87:                                               ; preds = %86
  %88 = load i32, i32* %5, align 4
  %89 = add nsw i32 %88, 1
  store i32 %89, i32* %5, align 4
  br label %17

90:                                               ; preds = %17
  %91 = load i32*, i32** %3, align 8
  %92 = load i32, i32* %91, align 4
  %93 = icmp eq i32 %92, 0
  br i1 %93, label %94, label %97

94:                                               ; preds = %90
  %95 = load i32*, i32** %3, align 8
  %96 = getelementptr inbounds i32, i32* %95, i32 -1
  store i32* %96, i32** %3, align 8
  br label %97

97:                                               ; preds = %94, %90
  br label %98

98:                                               ; preds = %102, %97
  %99 = load i32*, i32** %3, align 8
  %100 = getelementptr inbounds [100 x i32], [100 x i32]* %2, i64 0, i64 0
  %101 = icmp ne i32* %99, %100
  br i1 %101, label %102, label %108

102:                                              ; preds = %98
  %103 = load i32*, i32** %3, align 8
  %104 = load i32, i32* %103, align 4
  %105 = call dereferenceable(272) %"class.std::basic_ostream"* @_ZNSolsEi(%"class.std::basic_ostream"* @_ZSt4cout, i32 %104)
  %106 = load i32*, i32** %3, align 8
  %107 = getelementptr inbounds i32, i32* %106, i32 -1
  store i32* %107, i32** %3, align 8
  br label %98

108:                                              ; preds = %98
  %109 = load i32*, i32** %3, align 8
  %110 = load i32, i32* %109, align 4
  %111 = call dereferenceable(272) %"class.std::basic_ostream"* @_ZNSolsEi(%"class.std::basic_ostream"* @_ZSt4cout, i32 %110)
  store i32 0, i32* %1, align 4
  br label %112

112:                                              ; preds = %108, %14
  %113 = load i32, i32* %1, align 4
  ret i32 %113
}

; Function Attrs: argmemonly nounwind willreturn
declare void @llvm.memset.p0i8.i64(i8* nocapture writeonly, i8, i64, i1 immarg) #5

declare dso_local dereferenceable(280) %"class.std::basic_istream"* @_ZNSirsERi(%"class.std::basic_istream"*, i32* dereferenceable(4)) #1

declare dso_local dereferenceable(272) %"class.std::basic_ostream"* @_ZNSolsEi(%"class.std::basic_ostream"*, i32) #1

; Function Attrs: noinline uwtable
define internal void @_GLOBAL__sub_I_1189.cpp() #0 section ".text.startup" {
  call void @__cxx_global_var_init()
  ret void
}


!llvm.module.flags = !{!0}
!llvm.ident = !{!1}

!0 = !{i32 1, !"wchar_size", i32 4}
!1 = !{!"clang version 10.0.0-4ubuntu1 "}
